target datalayout = "e-m:e-p270:32:32-p271:32:32-p272:64:64-i64:64-i128:128-f80:128-n8:16:32:64-S128"
target triple = "x86_64-pc-linux-gnu"

%class.anon.7 = type { i8 }
%class.anon.238 = type { %class.anon.7 }
%"class.rc::Seq<rc::Shrinkable<std::__cxx11::basic_string<char>>>::ISeqImpl" = type { ptr }
%"class.rc::Seq.247" = type { %"class.std::unique_ptr.248" }
%"class.std::unique_ptr.248" = type { %"struct.std::__uniq_ptr_data.249" }
%"struct.std::__uniq_ptr_data.249" = type { %"class.std::__uniq_ptr_impl.250" }
%"class.std::__uniq_ptr_impl.250" = type { %"class.std::tuple.251" }
%"class.std::tuple.251" = type { %"struct.std::_Tuple_impl.252" }
%"struct.std::_Tuple_impl.252" = type { %"struct.std::_Head_base.255" }
%"struct.std::_Head_base.255" = type { ptr }
%class.anon.256 = type { %class.anon.238 }
%"class.rc::Seq<rc::Shrinkable<std::__cxx11::basic_string<char>>>::SeqImpl.257" = type { %"class.rc::Seq<rc::Shrinkable<std::__cxx11::basic_string<char>>>::ISeqImpl", %"class.rc::seq::detail::MapSeq.258" }
%"class.rc::seq::detail::MapSeq.258" = type { %class.anon.256, %"class.rc::Seq.247" }

; Function Attrs: mustprogress nounwind uwtable
define linkonce_odr noundef nonnull align 1 dereferenceable(1) ptr @_ZNSt10_Head_baseILm1ESt14default_deleteIN2rc3SeqINS1_10ShrinkableISt5tupleIJN3nix13StorePathNameEEEEEE8ISeqImplEELb1EE7_M_headERSC_(ptr noundef nonnull align 1 dereferenceable(1) %0) #4 comdat align 2 {
  %2 = alloca ptr, align 8
  store ptr %0, ptr %2, align 8
  %3 = load ptr, ptr %2, align 8
  ret ptr %3
}

; Function Attrs: mustprogress nounwind uwtable
define linkonce_odr noundef nonnull align 1 dereferenceable(1) ptr @_ZNSt11_Tuple_implILm1EJSt14default_deleteIN2rc3SeqINS1_10ShrinkableISt5tupleIJN3nix13StorePathNameEEEEEE8ISeqImplEEEE7_M_headERSC_(ptr noundef nonnull align 1 dereferenceable(1) %0) #4 comdat align 2 {
  %2 = alloca ptr, align 8
  store ptr %0, ptr %2, align 8
  %3 = load ptr, ptr %2, align 8
  %4 = call noundef nonnull align 1 dereferenceable(1) ptr @_ZNSt10_Head_baseILm1ESt14default_deleteIN2rc3SeqINS1_10ShrinkableISt5tupleIJN3nix13StorePathNameEEEEEE8ISeqImplEELb1EE7_M_headERSC_(ptr noundef nonnull align 1 dereferenceable(1) %3) #3
  ret ptr %4
}

; Function Attrs: mustprogress nounwind uwtable
define linkonce_odr noundef nonnull align 8 dereferenceable(8) ptr @_ZNSt10_Head_baseILm0EPN2rc3SeqINS0_10ShrinkableISt5tupleIJN3nix13StorePathNameEEEEEE8ISeqImplELb0EE7_M_headERSB_(ptr noundef nonnull align 8 dereferenceable(8) %0) #4 comdat align 2 {
  %2 = alloca ptr, align 8
  store ptr %0, ptr %2, align 8
  %3 = load ptr, ptr %2, align 8
  %4 = getelementptr inbounds %"struct.std::_Head_base.255", ptr %3, i32 0, i32 0
  ret ptr %4
}

; Function Attrs: mustprogress nounwind uwtable
define linkonce_odr noundef nonnull align 1 dereferenceable(1) ptr @_ZSt12__get_helperILm1ESt14default_deleteIN2rc3SeqINS1_10ShrinkableISt5tupleIJN3nix13StorePathNameEEEEEE8ISeqImplEEJEERT0_RSt11_Tuple_implIXT_EJSC_DpT1_EE(ptr noundef nonnull align 1 dereferenceable(1) %0) #4 comdat {
  %2 = alloca ptr, align 8
  store ptr %0, ptr %2, align 8
  %3 = load ptr, ptr %2, align 8
  %4 = call noundef nonnull align 1 dereferenceable(1) ptr @_ZNSt11_Tuple_implILm1EJSt14default_deleteIN2rc3SeqINS1_10ShrinkableISt5tupleIJN3nix13StorePathNameEEEEEE8ISeqImplEEEE7_M_headERSC_(ptr noundef nonnull align 1 dereferenceable(1) %3) #3
  ret ptr %4
}

; Function Attrs: mustprogress nounwind uwtable
define linkonce_odr noundef nonnull align 8 dereferenceable(8) ptr @_ZNSt11_Tuple_implILm0EJPN2rc3SeqINS0_10ShrinkableISt5tupleIJN3nix13StorePathNameEEEEEE8ISeqImplESt14default_deleteIS9_EEE7_M_headERSD_(ptr noundef nonnull align 8 dereferenceable(8) %0) #4 comdat align 2 {
  %2 = alloca ptr, align 8
  store ptr %0, ptr %2, align 8
  %3 = load ptr, ptr %2, align 8
  %4 = call noundef nonnull align 8 dereferenceable(8) ptr @_ZNSt10_Head_baseILm0EPN2rc3SeqINS0_10ShrinkableISt5tupleIJN3nix13StorePathNameEEEEEE8ISeqImplELb0EE7_M_headERSB_(ptr noundef nonnull align 8 dereferenceable(8) %3) #3
  ret ptr %4
}

; Function Attrs: mustprogress nounwind uwtable
define linkonce_odr noundef nonnull align 1 dereferenceable(1) ptr @_ZSt3getILm1EJPN2rc3SeqINS0_10ShrinkableISt5tupleIJN3nix13StorePathNameEEEEEE8ISeqImplESt14default_deleteIS9_EEERNSt13tuple_elementIXT_ES3_IJDpT0_EEE4typeERSG_(ptr noundef nonnull align 8 dereferenceable(8) %0) #4 comdat {
  %2 = alloca ptr, align 8
  store ptr %0, ptr %2, align 8
  %3 = load ptr, ptr %2, align 8
  %4 = call noundef nonnull align 1 dereferenceable(1) ptr @_ZSt12__get_helperILm1ESt14default_deleteIN2rc3SeqINS1_10ShrinkableISt5tupleIJN3nix13StorePathNameEEEEEE8ISeqImplEEJEERT0_RSt11_Tuple_implIXT_EJSC_DpT1_EE(ptr noundef nonnull align 1 dereferenceable(1) %3) #3
  ret ptr %4
}

; Function Attrs: mustprogress nounwind uwtable
define linkonce_odr noundef nonnull align 8 dereferenceable(8) ptr @_ZSt12__get_helperILm0EPN2rc3SeqINS0_10ShrinkableISt5tupleIJN3nix13StorePathNameEEEEEE8ISeqImplEJSt14default_deleteIS9_EEERT0_RSt11_Tuple_implIXT_EJSD_DpT1_EE(ptr noundef nonnull align 8 dereferenceable(8) %0) #4 comdat {
  %2 = alloca ptr, align 8
  store ptr %0, ptr %2, align 8
  %3 = load ptr, ptr %2, align 8
  %4 = call noundef nonnull align 8 dereferenceable(8) ptr @_ZNSt11_Tuple_implILm0EJPN2rc3SeqINS0_10ShrinkableISt5tupleIJN3nix13StorePathNameEEEEEE8ISeqImplESt14default_deleteIS9_EEE7_M_headERSD_(ptr noundef nonnull align 8 dereferenceable(8) %3) #3
  ret ptr %4
}

; Function Attrs: mustprogress nounwind uwtable
define linkonce_odr noundef nonnull align 1 dereferenceable(1) ptr @_ZNSt15__uniq_ptr_implIN2rc3SeqINS0_10ShrinkableISt5tupleIJN3nix13StorePathNameEEEEEE8ISeqImplESt14default_deleteIS9_EE10_M_deleterEv(ptr noundef nonnull align 8 dereferenceable(8) %0) #4 comdat align 2 {
  %2 = alloca ptr, align 8
  store ptr %0, ptr %2, align 8
  %3 = load ptr, ptr %2, align 8
  %4 = getelementptr inbounds %"class.std::__uniq_ptr_impl.250", ptr %3, i32 0, i32 0
  %5 = call noundef nonnull align 1 dereferenceable(1) ptr @_ZSt3getILm1EJPN2rc3SeqINS0_10ShrinkableISt5tupleIJN3nix13StorePathNameEEEEEE8ISeqImplESt14default_deleteIS9_EEERNSt13tuple_elementIXT_ES3_IJDpT0_EEE4typeERSG_(ptr noundef nonnull align 8 dereferenceable(8) %4) #3
  ret ptr %5
}

; Function Attrs: mustprogress nounwind uwtable
define linkonce_odr noundef nonnull align 8 dereferenceable(8) ptr @_ZSt3getILm0EJPN2rc3SeqINS0_10ShrinkableISt5tupleIJN3nix13StorePathNameEEEEEE8ISeqImplESt14default_deleteIS9_EEERNSt13tuple_elementIXT_ES3_IJDpT0_EEE4typeERSG_(ptr noundef nonnull align 8 dereferenceable(8) %0) #4 comdat {
  %2 = alloca ptr, align 8
  store ptr %0, ptr %2, align 8
  %3 = load ptr, ptr %2, align 8
  %4 = call noundef nonnull align 8 dereferenceable(8) ptr @_ZSt12__get_helperILm0EPN2rc3SeqINS0_10ShrinkableISt5tupleIJN3nix13StorePathNameEEEEEE8ISeqImplEJSt14default_deleteIS9_EEERT0_RSt11_Tuple_implIXT_EJSD_DpT1_EE(ptr noundef nonnull align 8 dereferenceable(8) %3) #3
  ret ptr %4
}

; Function Attrs: mustprogress nounwind uwtable
define linkonce_odr void @_ZNKSt14default_deleteIN2rc3SeqINS0_10ShrinkableISt5tupleIJN3nix13StorePathNameEEEEEE8ISeqImplEEclEPS9_(ptr noundef nonnull align 1 dereferenceable(1) %0, ptr noundef %1) #4 comdat align 2 {
  %3 = alloca ptr, align 8
  %4 = alloca ptr, align 8
  store ptr %0, ptr %3, align 8
  store ptr %1, ptr %4, align 8
  %5 = load ptr, ptr %4, align 8
  %6 = icmp eq ptr %5, null
  br i1 %6, label %11, label %7

7:                                                ; preds = %2
  %8 = load ptr, ptr %5, align 8
  %9 = getelementptr inbounds ptr, ptr %8, i64 3
  %10 = load ptr, ptr %9, align 8
  call void %10(ptr noundef nonnull align 8 dereferenceable(8) %5) #3
  br label %11

11:                                               ; preds = %7, %2
  ret void
}

; Function Attrs: mustprogress nounwind uwtable
define linkonce_odr noundef nonnull align 1 dereferenceable(1) ptr @_ZNSt10unique_ptrIN2rc3SeqINS0_10ShrinkableISt5tupleIJN3nix13StorePathNameEEEEEE8ISeqImplESt14default_deleteIS9_EE11get_deleterEv(ptr noundef nonnull align 8 dereferenceable(8) %0) #4 comdat align 2 {
  %2 = alloca ptr, align 8
  store ptr %0, ptr %2, align 8
  %3 = load ptr, ptr %2, align 8
  %4 = getelementptr inbounds %"class.std::unique_ptr.248", ptr %3, i32 0, i32 0
  %5 = call noundef nonnull align 1 dereferenceable(1) ptr @_ZNSt15__uniq_ptr_implIN2rc3SeqINS0_10ShrinkableISt5tupleIJN3nix13StorePathNameEEEEEE8ISeqImplESt14default_deleteIS9_EE10_M_deleterEv(ptr noundef nonnull align 8 dereferenceable(8) %4) #3
  ret ptr %5
}

; Function Attrs: mustprogress nounwind uwtable
define linkonce_odr noundef nonnull align 8 dereferenceable(8) ptr @_ZNSt15__uniq_ptr_implIN2rc3SeqINS0_10ShrinkableISt5tupleIJN3nix13StorePathNameEEEEEE8ISeqImplESt14default_deleteIS9_EE6_M_ptrEv(ptr noundef nonnull align 8 dereferenceable(8) %0) #4 comdat align 2 {
  %2 = alloca ptr, align 8
  store ptr %0, ptr %2, align 8
  %3 = load ptr, ptr %2, align 8
  %4 = getelementptr inbounds %"class.std::__uniq_ptr_impl.250", ptr %3, i32 0, i32 0
  %5 = call noundef nonnull align 8 dereferenceable(8) ptr @_ZSt3getILm0EJPN2rc3SeqINS0_10ShrinkableISt5tupleIJN3nix13StorePathNameEEEEEE8ISeqImplESt14default_deleteIS9_EEERNSt13tuple_elementIXT_ES3_IJDpT0_EEE4typeERSG_(ptr noundef nonnull align 8 dereferenceable(8) %4) #3
  ret ptr %5
}

; Function Attrs: mustprogress nounwind uwtable
define linkonce_odr void @_ZNSt10unique_ptrIN2rc3SeqINS0_10ShrinkableISt5tupleIJN3nix13StorePathNameEEEEEE8ISeqImplESt14default_deleteIS9_EED2Ev(ptr noundef nonnull align 8 dereferenceable(8) %0) unnamed_addr #4 comdat align 2 {
  %2 = alloca ptr, align 8
  %3 = alloca ptr, align 8
  store ptr %0, ptr %2, align 8
  %4 = load ptr, ptr %2, align 8
  %5 = getelementptr inbounds %"class.std::unique_ptr.248", ptr %4, i32 0, i32 0
  %6 = call noundef nonnull align 8 dereferenceable(8) ptr @_ZNSt15__uniq_ptr_implIN2rc3SeqINS0_10ShrinkableISt5tupleIJN3nix13StorePathNameEEEEEE8ISeqImplESt14default_deleteIS9_EE6_M_ptrEv(ptr noundef nonnull align 8 dereferenceable(8) %5) #3
  store ptr %6, ptr %3, align 8
  %7 = load ptr, ptr %3, align 8
  %8 = load ptr, ptr %7, align 8
  %9 = icmp ne ptr %8, null
  br i1 %9, label %10, label %14

10:                                               ; preds = %1
  %11 = call noundef nonnull align 1 dereferenceable(1) ptr @_ZNSt10unique_ptrIN2rc3SeqINS0_10ShrinkableISt5tupleIJN3nix13StorePathNameEEEEEE8ISeqImplESt14default_deleteIS9_EE11get_deleterEv(ptr noundef nonnull align 8 dereferenceable(8) %4) #3
  %12 = load ptr, ptr %3, align 8
  %13 = load ptr, ptr %12, align 8
  call void @_ZNKSt14default_deleteIN2rc3SeqINS0_10ShrinkableISt5tupleIJN3nix13StorePathNameEEEEEE8ISeqImplEEclEPS9_(ptr noundef nonnull align 1 dereferenceable(1) %11, ptr noundef %13)
  br label %14

14:                                               ; preds = %10, %1
  %15 = load ptr, ptr %3, align 8
  store ptr null, ptr %15, align 8
  ret void
}

; Function Attrs: mustprogress nounwind uwtable
define linkonce_odr void @_ZN2rc3SeqINS_10ShrinkableISt5tupleIJN3nix13StorePathNameEEEEEED2Ev(ptr noundef nonnull align 8 dereferenceable(8) %0) unnamed_addr #4 comdat align 2 {
  %2 = alloca ptr, align 8
  store ptr %0, ptr %2, align 8
  %3 = load ptr, ptr %2, align 8
  %4 = getelementptr inbounds %"class.rc::Seq.247", ptr %3, i32 0, i32 0
  call void @_ZNSt10unique_ptrIN2rc3SeqINS0_10ShrinkableISt5tupleIJN3nix13StorePathNameEEEEEE8ISeqImplESt14default_deleteIS9_EED2Ev(ptr noundef nonnull align 8 dereferenceable(8) %4) #3
  ret void
}

; Function Attrs: mustprogress nounwind uwtable
define linkonce_odr void @_ZN2rc3SeqINS_10ShrinkableINSt7__cxx1112basic_stringIcSt11char_traitsIcESaIcEEEEEE8ISeqImplD2Ev(ptr noundef nonnull align 8 dereferenceable(8) %0) unnamed_addr #4 comdat align 2 {
  %2 = alloca ptr, align 8
  store ptr %0, ptr %2, align 8
  ret void
}

; Function Attrs: mustprogress nounwind uwtable
define internal void @"_ZN2rc3seq6detail6MapSeqIZNKS_10shrinkable6detail13MapShrinkableISt5tupleIJN3nix13StorePathNameEEEZNS_3gen5applyIZNS_9ArbitraryINS7_9StorePathEvE9arbitraryEvE3$_0JS8_EEENS_3GenINSt13invoke_resultIT_JDpT0_EE4typeEEEOSI_DpNSG_ISJ_EEEUlOS9_E_E7shrinksB5cxx11EvEUlONS_10ShrinkableIS9_EEE_SV_ED2Ev"(ptr noundef nonnull align 8 dereferenceable(16) %0) unnamed_addr #4 align 2 {
  %2 = alloca ptr, align 8
  store ptr %0, ptr %2, align 8
  %3 = load ptr, ptr %2, align 8
  %4 = getelementptr inbounds %"class.rc::seq::detail::MapSeq.258", ptr %3, i32 0, i32 1
  call void @_ZN2rc3SeqINS_10ShrinkableISt5tupleIJN3nix13StorePathNameEEEEEED2Ev(ptr noundef nonnull align 8 dereferenceable(8) %4) #3
  ret void
}

; Function Attrs: mustprogress nounwind uwtable
define internal void @"_ZN2rc3SeqINS_10ShrinkableINSt7__cxx1112basic_stringIcSt11char_traitsIcESaIcEEEEEE7SeqImplINS_3seq6detail6MapSeqIZNKS_10shrinkable6detail13MapShrinkableISt5tupleIJN3nix13StorePathNameEEEZNS_3gen5applyIZNS_9ArbitraryINSI_9StorePathEvE9arbitraryEvE3$_0JSJ_EEENS_3GenINSt13invoke_resultIT_JDpT0_EE4typeEEEOST_DpNSR_ISU_EEEUlOSK_E_E7shrinksEvEUlONS1_ISK_EEE_S15_EEED2Ev"(ptr noundef nonnull align 8 dereferenceable(24) %0) unnamed_addr #4 align 2 {
  %2 = alloca ptr, align 8
  store ptr %0, ptr %2, align 8
  %3 = load ptr, ptr %2, align 8
  store ptr getelementptr inbounds ({ [6 x ptr] }, ptr @"_ZTVN2rc3SeqINS_10ShrinkableINSt7__cxx1112basic_stringIcSt11char_traitsIcESaIcEEEEEE7SeqImplINS_3seq6detail6MapSeqIZNKS_10shrinkable6detail13MapShrinkableISt5tupleIJN3nix13StorePathNameEEEZNS_3gen5applyIZNS_9ArbitraryINSI_9StorePathEvE9arbitraryEvE3$_0JSJ_EEENS_3GenINSt13invoke_resultIT_JDpT0_EE4typeEEEOST_DpNSR_ISU_EEEUlOSK_E_E7shrinksEvEUlONS1_ISK_EEE_S15_EEEE", i32 0, i32 0, i32 2), ptr %3, align 8
  %4 = getelementptr inbounds %"class.rc::Seq<rc::Shrinkable<std::__cxx11::basic_string<char>>>::SeqImpl.257", ptr %3, i32 0, i32 1
  call void @"_ZN2rc3seq6detail6MapSeqIZNKS_10shrinkable6detail13MapShrinkableISt5tupleIJN3nix13StorePathNameEEEZNS_3gen5applyIZNS_9ArbitraryINS7_9StorePathEvE9arbitraryEvE3$_0JS8_EEENS_3GenINSt13invoke_resultIT_JDpT0_EE4typeEEEOSI_DpNSG_ISJ_EEEUlOS9_E_E7shrinksB5cxx11EvEUlONS_10ShrinkableIS9_EEE_SV_ED2Ev"(ptr noundef nonnull align 8 dereferenceable(16) %4) #3
  call void @_ZN2rc3SeqINS_10ShrinkableINSt7__cxx1112basic_stringIcSt11char_traitsIcESaIcEEEEEE8ISeqImplD2Ev(ptr noundef nonnull align 8 dereferenceable(8) %3) #3
  ret void
}

; Function Attrs: mustprogress nounwind uwtable
define internal void @"_ZN2rc3SeqINS_10ShrinkableINSt7__cxx1112basic_stringIcSt11char_traitsIcESaIcEEEEEE7SeqImplINS_3seq6detail6MapSeqIZNKS_10shrinkable6detail13MapShrinkableISt5tupleIJN3nix13StorePathNameEEEZNS_3gen5applyIZNS_9ArbitraryINSI_9StorePathEvE9arbitraryEvE3$_0JSJ_EEENS_3GenINSt13invoke_resultIT_JDpT0_EE4typeEEEOST_DpNSR_ISU_EEEUlOSK_E_E7shrinksEvEUlONS1_ISK_EEE_S15_EEED0Ev"(ptr noundef nonnull align 8 dereferenceable(24) %0) unnamed_addr #4 align 2 {
  %2 = alloca ptr, align 8
  store ptr %0, ptr %2, align 8
  %3 = load ptr, ptr %2, align 8
  call void @"_ZN2rc3SeqINS_10ShrinkableINSt7__cxx1112basic_stringIcSt11char_traitsIcESaIcEEEEEE7SeqImplINS_3seq6detail6MapSeqIZNKS_10shrinkable6detail13MapShrinkableISt5tupleIJN3nix13StorePathNameEEEZNS_3gen5applyIZNS_9ArbitraryINSI_9StorePathEvE9arbitraryEvE3$_0JSJ_EEENS_3GenINSt13invoke_resultIT_JDpT0_EE4typeEEEOST_DpNSR_ISU_EEEUlOSK_E_E7shrinksEvEUlONS1_ISK_EEE_S15_EEED2Ev"(ptr noundef nonnull align 8 dereferenceable(24) %3) #3
  call void @_ZdlPv(ptr noundef %3) #16
  ret void
}